; ModuleID = 'source-C-CXX/34/659.c'
source_filename = "source-C-CXX/34/659.c"
target datalayout = "e-m:e-p270:32:32-p271:32:32-p272:64:64-i64:64-f80:128-n8:16:32:64-S128"
target triple = "x86_64-pc-linux-gnu"

@.str = private unnamed_addr constant [6 x i8] c"%d,%d\00", align 1
@.str.1 = private unnamed_addr constant [3 x i8] c"%d\00", align 1
@.str.2 = private unnamed_addr constant [6 x i8] c"%d+%d\00", align 1
@.str.3 = private unnamed_addr constant [3 x i8] c"No\00", align 1

; Function Attrs: nofree nounwind sspstrong uwtable
define dso_local i32 @main() local_unnamed_addr #0 {
  %1 = alloca [8 x [8 x i32]], align 16
  %2 = alloca i32, align 4
  %3 = alloca i32, align 4
  %4 = bitcast [8 x [8 x i32]]* %1 to i8*
  call void @llvm.lifetime.start.p0i8(i64 256, i8* nonnull %4) #3
  %5 = bitcast i32* %2 to i8*
  call void @llvm.lifetime.start.p0i8(i64 4, i8* nonnull %5) #3
  %6 = bitcast i32* %3 to i8*
  call void @llvm.lifetime.start.p0i8(i64 4, i8* nonnull %6) #3
  %7 = call i32 (i8*, ...) @__isoc99_scanf(i8* getelementptr inbounds ([6 x i8], [6 x i8]* @.str, i64 0, i64 0), i32* nonnull %2, i32* nonnull %3)
  %8 = load i32, i32* %2, align 4, !tbaa !5
  %9 = icmp sgt i32 %8, 0
  br i1 %9, label %10, label %228

10:                                               ; preds = %0
  %11 = load i32, i32* %3, align 4, !tbaa !5
  %12 = icmp sgt i32 %11, 0
  br i1 %12, label %13, label %146

13:                                               ; preds = %10, %215
  %14 = phi i32 [ %216, %215 ], [ %8, %10 ]
  %15 = phi i32 [ %217, %215 ], [ %11, %10 ]
  %16 = phi i64 [ %218, %215 ], [ 0, %10 ]
  %17 = icmp sgt i32 %15, 0
  br i1 %17, label %205, label %215

18:                                               ; preds = %215
  %19 = icmp sgt i32 %216, 0
  br i1 %19, label %20, label %228

20:                                               ; preds = %18
  %21 = icmp sgt i32 %217, 1
  br i1 %21, label %22, label %146

22:                                               ; preds = %20
  %23 = zext i32 %216 to i64
  %24 = zext i32 %217 to i64
  %25 = add nsw i64 %24, -1
  %26 = add nsw i64 %24, -2
  %27 = add nsw i64 %23, -1
  %28 = and i64 %25, 3
  %29 = icmp ult i64 %26, 3
  %30 = and i64 %25, -4
  %31 = icmp eq i64 %28, 0
  %32 = and i64 %23, 3
  %33 = icmp ult i64 %27, 3
  %34 = and i64 %23, 4294967292
  %35 = icmp eq i64 %32, 0
  br label %36

36:                                               ; preds = %22, %40
  %37 = phi i64 [ 0, %22 ], [ %41, %40 ]
  %38 = getelementptr inbounds [8 x [8 x i32]], [8 x [8 x i32]]* %1, i64 0, i64 %37, i64 0
  %39 = load i32, i32* %38, align 16, !tbaa !5
  br i1 %29, label %104, label %69

40:                                               ; preds = %143
  %41 = add nuw nsw i64 %37, 1
  %42 = icmp eq i64 %41, %23
  br i1 %42, label %226, label %36, !llvm.loop !9

43:                                               ; preds = %123, %43
  %44 = phi i64 [ %66, %43 ], [ 0, %123 ]
  %45 = phi i32 [ %65, %43 ], [ 0, %123 ]
  %46 = phi i64 [ %67, %43 ], [ %34, %123 ]
  %47 = getelementptr inbounds [8 x [8 x i32]], [8 x [8 x i32]]* %1, i64 0, i64 %44, i64 %125
  %48 = load i32, i32* %47, align 4, !tbaa !5
  %49 = icmp slt i32 %48, %127
  %50 = or i64 %44, 1
  %51 = getelementptr inbounds [8 x [8 x i32]], [8 x [8 x i32]]* %1, i64 0, i64 %50, i64 %125
  %52 = load i32, i32* %51, align 4, !tbaa !5
  %53 = icmp slt i32 %52, %127
  %54 = or i64 %44, 2
  %55 = getelementptr inbounds [8 x [8 x i32]], [8 x [8 x i32]]* %1, i64 0, i64 %54, i64 %125
  %56 = load i32, i32* %55, align 4, !tbaa !5
  %57 = icmp slt i32 %56, %127
  %58 = or i64 %44, 3
  %59 = getelementptr inbounds [8 x [8 x i32]], [8 x [8 x i32]]* %1, i64 0, i64 %58, i64 %125
  %60 = load i32, i32* %59, align 4, !tbaa !5
  %61 = icmp slt i32 %60, %127
  %62 = select i1 %61, i1 true, i1 %57
  %63 = select i1 %62, i1 true, i1 %53
  %64 = select i1 %63, i1 true, i1 %49
  %65 = select i1 %64, i32 1, i32 %45
  %66 = add nuw nsw i64 %44, 4
  %67 = add i64 %46, -4
  %68 = icmp eq i64 %67, 0
  br i1 %68, label %128, label %43, !llvm.loop !11

69:                                               ; preds = %36, %69
  %70 = phi i64 [ %101, %69 ], [ 1, %36 ]
  %71 = phi i32 [ %100, %69 ], [ %39, %36 ]
  %72 = phi i32 [ %99, %69 ], [ 0, %36 ]
  %73 = phi i64 [ %102, %69 ], [ %30, %36 ]
  %74 = getelementptr inbounds [8 x [8 x i32]], [8 x [8 x i32]]* %1, i64 0, i64 %37, i64 %70
  %75 = load i32, i32* %74, align 4, !tbaa !5
  %76 = icmp sgt i32 %75, %71
  %77 = trunc i64 %70 to i32
  %78 = select i1 %76, i32 %77, i32 %72
  %79 = select i1 %76, i32 %75, i32 %71
  %80 = add nuw nsw i64 %70, 1
  %81 = getelementptr inbounds [8 x [8 x i32]], [8 x [8 x i32]]* %1, i64 0, i64 %37, i64 %80
  %82 = load i32, i32* %81, align 4, !tbaa !5
  %83 = icmp sgt i32 %82, %79
  %84 = trunc i64 %80 to i32
  %85 = select i1 %83, i32 %84, i32 %78
  %86 = select i1 %83, i32 %82, i32 %79
  %87 = add nuw nsw i64 %70, 2
  %88 = getelementptr inbounds [8 x [8 x i32]], [8 x [8 x i32]]* %1, i64 0, i64 %37, i64 %87
  %89 = load i32, i32* %88, align 4, !tbaa !5
  %90 = icmp sgt i32 %89, %86
  %91 = trunc i64 %87 to i32
  %92 = select i1 %90, i32 %91, i32 %85
  %93 = select i1 %90, i32 %89, i32 %86
  %94 = add nuw nsw i64 %70, 3
  %95 = getelementptr inbounds [8 x [8 x i32]], [8 x [8 x i32]]* %1, i64 0, i64 %37, i64 %94
  %96 = load i32, i32* %95, align 4, !tbaa !5
  %97 = icmp sgt i32 %96, %93
  %98 = trunc i64 %94 to i32
  %99 = select i1 %97, i32 %98, i32 %92
  %100 = select i1 %97, i32 %96, i32 %93
  %101 = add nuw nsw i64 %70, 4
  %102 = add i64 %73, -4
  %103 = icmp eq i64 %102, 0
  br i1 %103, label %104, label %69, !llvm.loop !12

104:                                              ; preds = %69, %36
  %105 = phi i32 [ undef, %36 ], [ %99, %69 ]
  %106 = phi i64 [ 1, %36 ], [ %101, %69 ]
  %107 = phi i32 [ %39, %36 ], [ %100, %69 ]
  %108 = phi i32 [ 0, %36 ], [ %99, %69 ]
  br i1 %31, label %123, label %109

109:                                              ; preds = %104, %109
  %110 = phi i64 [ %120, %109 ], [ %106, %104 ]
  %111 = phi i32 [ %119, %109 ], [ %107, %104 ]
  %112 = phi i32 [ %118, %109 ], [ %108, %104 ]
  %113 = phi i64 [ %121, %109 ], [ %28, %104 ]
  %114 = getelementptr inbounds [8 x [8 x i32]], [8 x [8 x i32]]* %1, i64 0, i64 %37, i64 %110
  %115 = load i32, i32* %114, align 4, !tbaa !5
  %116 = icmp sgt i32 %115, %111
  %117 = trunc i64 %110 to i32
  %118 = select i1 %116, i32 %117, i32 %112
  %119 = select i1 %116, i32 %115, i32 %111
  %120 = add nuw nsw i64 %110, 1
  %121 = add i64 %113, -1
  %122 = icmp eq i64 %121, 0
  br i1 %122, label %123, label %109, !llvm.loop !13

123:                                              ; preds = %109, %104
  %124 = phi i32 [ %105, %104 ], [ %118, %109 ]
  %125 = sext i32 %124 to i64
  %126 = getelementptr inbounds [8 x [8 x i32]], [8 x [8 x i32]]* %1, i64 0, i64 %37, i64 %125
  %127 = load i32, i32* %126, align 4, !tbaa !5
  br i1 %33, label %128, label %43

128:                                              ; preds = %43, %123
  %129 = phi i32 [ undef, %123 ], [ %65, %43 ]
  %130 = phi i64 [ 0, %123 ], [ %66, %43 ]
  %131 = phi i32 [ 0, %123 ], [ %65, %43 ]
  br i1 %35, label %143, label %132

132:                                              ; preds = %128, %132
  %133 = phi i64 [ %140, %132 ], [ %130, %128 ]
  %134 = phi i32 [ %139, %132 ], [ %131, %128 ]
  %135 = phi i64 [ %141, %132 ], [ %32, %128 ]
  %136 = getelementptr inbounds [8 x [8 x i32]], [8 x [8 x i32]]* %1, i64 0, i64 %133, i64 %125
  %137 = load i32, i32* %136, align 4, !tbaa !5
  %138 = icmp slt i32 %137, %127
  %139 = select i1 %138, i32 1, i32 %134
  %140 = add nuw nsw i64 %133, 1
  %141 = add i64 %135, -1
  %142 = icmp eq i64 %141, 0
  br i1 %142, label %143, label %132, !llvm.loop !15

143:                                              ; preds = %132, %128
  %144 = phi i32 [ %129, %128 ], [ %139, %132 ]
  %145 = icmp eq i32 %144, 0
  br i1 %145, label %221, label %40

146:                                              ; preds = %10, %20
  %147 = phi i32 [ %216, %20 ], [ %8, %10 ]
  %148 = zext i32 %147 to i64
  %149 = add nsw i64 %148, -1
  %150 = and i64 %148, 3
  %151 = icmp ult i64 %149, 3
  %152 = and i64 %148, 4294967292
  %153 = icmp eq i64 %150, 0
  br label %154

154:                                              ; preds = %146, %158
  %155 = phi i64 [ 0, %146 ], [ %159, %158 ]
  %156 = getelementptr inbounds [8 x [8 x i32]], [8 x [8 x i32]]* %1, i64 0, i64 %155, i64 0
  %157 = load i32, i32* %156, align 16, !tbaa !5
  br i1 %151, label %187, label %161

158:                                              ; preds = %202
  %159 = add nuw nsw i64 %155, 1
  %160 = icmp eq i64 %159, %148
  br i1 %160, label %226, label %154, !llvm.loop !9

161:                                              ; preds = %154, %161
  %162 = phi i64 [ %184, %161 ], [ 0, %154 ]
  %163 = phi i32 [ %183, %161 ], [ 0, %154 ]
  %164 = phi i64 [ %185, %161 ], [ %152, %154 ]
  %165 = getelementptr inbounds [8 x [8 x i32]], [8 x [8 x i32]]* %1, i64 0, i64 %162, i64 0
  %166 = load i32, i32* %165, align 16, !tbaa !5
  %167 = icmp slt i32 %166, %157
  %168 = or i64 %162, 1
  %169 = getelementptr inbounds [8 x [8 x i32]], [8 x [8 x i32]]* %1, i64 0, i64 %168, i64 0
  %170 = load i32, i32* %169, align 16, !tbaa !5
  %171 = icmp slt i32 %170, %157
  %172 = or i64 %162, 2
  %173 = getelementptr inbounds [8 x [8 x i32]], [8 x [8 x i32]]* %1, i64 0, i64 %172, i64 0
  %174 = load i32, i32* %173, align 16, !tbaa !5
  %175 = icmp slt i32 %174, %157
  %176 = or i64 %162, 3
  %177 = getelementptr inbounds [8 x [8 x i32]], [8 x [8 x i32]]* %1, i64 0, i64 %176, i64 0
  %178 = load i32, i32* %177, align 16, !tbaa !5
  %179 = icmp slt i32 %178, %157
  %180 = select i1 %179, i1 true, i1 %175
  %181 = select i1 %180, i1 true, i1 %171
  %182 = select i1 %181, i1 true, i1 %167
  %183 = select i1 %182, i32 1, i32 %163
  %184 = add nuw nsw i64 %162, 4
  %185 = add i64 %164, -4
  %186 = icmp eq i64 %185, 0
  br i1 %186, label %187, label %161, !llvm.loop !11

187:                                              ; preds = %161, %154
  %188 = phi i32 [ undef, %154 ], [ %183, %161 ]
  %189 = phi i64 [ 0, %154 ], [ %184, %161 ]
  %190 = phi i32 [ 0, %154 ], [ %183, %161 ]
  br i1 %153, label %202, label %191

191:                                              ; preds = %187, %191
  %192 = phi i64 [ %199, %191 ], [ %189, %187 ]
  %193 = phi i32 [ %198, %191 ], [ %190, %187 ]
  %194 = phi i64 [ %200, %191 ], [ %150, %187 ]
  %195 = getelementptr inbounds [8 x [8 x i32]], [8 x [8 x i32]]* %1, i64 0, i64 %192, i64 0
  %196 = load i32, i32* %195, align 16, !tbaa !5
  %197 = icmp slt i32 %196, %157
  %198 = select i1 %197, i32 1, i32 %193
  %199 = add nuw nsw i64 %192, 1
  %200 = add i64 %194, -1
  %201 = icmp eq i64 %200, 0
  br i1 %201, label %202, label %191, !llvm.loop !16

202:                                              ; preds = %191, %187
  %203 = phi i32 [ %188, %187 ], [ %198, %191 ]
  %204 = icmp eq i32 %203, 0
  br i1 %204, label %221, label %158

205:                                              ; preds = %13, %205
  %206 = phi i64 [ %209, %205 ], [ 0, %13 ]
  %207 = getelementptr inbounds [8 x [8 x i32]], [8 x [8 x i32]]* %1, i64 0, i64 %16, i64 %206
  %208 = call i32 (i8*, ...) @__isoc99_scanf(i8* getelementptr inbounds ([3 x i8], [3 x i8]* @.str.1, i64 0, i64 0), i32* nonnull %207)
  %209 = add nuw nsw i64 %206, 1
  %210 = load i32, i32* %3, align 4, !tbaa !5
  %211 = sext i32 %210 to i64
  %212 = icmp slt i64 %209, %211
  br i1 %212, label %205, label %213, !llvm.loop !17

213:                                              ; preds = %205
  %214 = load i32, i32* %2, align 4, !tbaa !5
  br label %215

215:                                              ; preds = %213, %13
  %216 = phi i32 [ %214, %213 ], [ %14, %13 ]
  %217 = phi i32 [ %210, %213 ], [ %15, %13 ]
  %218 = add nuw nsw i64 %16, 1
  %219 = sext i32 %216 to i64
  %220 = icmp slt i64 %218, %219
  br i1 %220, label %13, label %18, !llvm.loop !18

221:                                              ; preds = %202, %143
  %222 = phi i64 [ %37, %143 ], [ %155, %202 ]
  %223 = phi i32 [ %124, %143 ], [ 0, %202 ]
  %224 = trunc i64 %222 to i32
  %225 = call i32 (i8*, ...) @printf(i8* nonnull dereferenceable(1) getelementptr inbounds ([6 x i8], [6 x i8]* @.str.2, i64 0, i64 0), i32 %224, i32 %223)
  br label %228

226:                                              ; preds = %158, %40
  %227 = call i32 (i8*, ...) @printf(i8* nonnull dereferenceable(1) getelementptr inbounds ([3 x i8], [3 x i8]* @.str.3, i64 0, i64 0))
  br label %228

228:                                              ; preds = %0, %18, %221, %226
  call void @llvm.lifetime.end.p0i8(i64 4, i8* nonnull %6) #3
  call void @llvm.lifetime.end.p0i8(i64 4, i8* nonnull %5) #3
  call void @llvm.lifetime.end.p0i8(i64 256, i8* nonnull %4) #3
  ret i32 0
}

; Function Attrs: argmemonly mustprogress nofree nosync nounwind willreturn
declare void @llvm.lifetime.start.p0i8(i64 immarg, i8* nocapture) #1

; Function Attrs: nofree nounwind
declare noundef i32 @__isoc99_scanf(i8* nocapture noundef readonly, ...) local_unnamed_addr #2

; Function Attrs: nofree nounwind
declare noundef i32 @printf(i8* nocapture noundef readonly, ...) local_unnamed_addr #2

; Function Attrs: argmemonly mustprogress nofree nosync nounwind willreturn
declare void @llvm.lifetime.end.p0i8(i64 immarg, i8* nocapture) #1


!llvm.module.flags = !{!0, !1, !2, !3}
!llvm.ident = !{!4}

!0 = !{i32 1, !"wchar_size", i32 4}
!1 = !{i32 7, !"PIC Level", i32 2}
!2 = !{i32 7, !"PIE Level", i32 2}
!3 = !{i32 7, !"uwtable", i32 1}
!4 = !{!"clang version 13.0.0"}
!5 = !{!6, !6, i64 0}
!6 = !{!"int", !7, i64 0}
!7 = !{!"omnipotent char", !8, i64 0}
!8 = !{!"Simple C/C++ TBAA"}
!9 = distinct !{!9, !10}
!10 = !{!"llvm.loop.mustprogress"}
!11 = distinct !{!11, !10}
!12 = distinct !{!12, !10}
!13 = distinct !{!13, !14}
!14 = !{!"llvm.loop.unroll.disable"}
!15 = distinct !{!15, !14}
!16 = distinct !{!16, !14}
!17 = distinct !{!17, !10}
!18 = distinct !{!18, !10, !19}
!19 = !{!"llvm.loop.unswitch.partial.disable"}
